; ModuleID = 'source-C-CXX/59/917.c'
source_filename = "source-C-CXX/59/917.c"
target datalayout = "e-m:e-p270:32:32-p271:32:32-p272:64:64-i64:64-f80:128-n8:16:32:64-S128"
target triple = "x86_64-pc-linux-gnu"

@.str = private unnamed_addr constant [3 x i8] c"%d\00", align 1
@.str.1 = private unnamed_addr constant [7 x i8] c"%d %d\0A\00", align 1
@.str.2 = private unnamed_addr constant [6 x i8] c"empty\00", align 1

; Function Attrs: nofree nounwind sspstrong uwtable
define dso_local i32 @main() local_unnamed_addr #0 {
  %1 = alloca i32, align 4
  %2 = bitcast i32* %1 to i8*
  call void @llvm.lifetime.start.p0i8(i64 4, i8* nonnull %2) #3
  %3 = call i32 (i8*, ...) @__isoc99_scanf(i8* getelementptr inbounds ([3 x i8], [3 x i8]* @.str, i64 0, i64 0), i32* nonnull %1)
  %4 = load i32, i32* %1, align 4, !tbaa !5
  %5 = icmp sgt i32 %4, 4
  br i1 %5, label %6, label %33

6:                                                ; preds = %0, %27
  %7 = phi i32 [ %28, %27 ], [ %4, %0 ]
  %8 = phi i32 [ %30, %27 ], [ 3, %0 ]
  %9 = phi i32 [ %29, %27 ], [ 0, %0 ]
  %10 = add nuw nsw i32 %8, 2
  br label %15

11:                                               ; preds = %27
  %12 = icmp eq i32 %29, 0
  br i1 %12, label %33, label %35

13:                                               ; preds = %19
  %14 = icmp eq i32 %22, %8
  br i1 %14, label %23, label %15, !llvm.loop !9

15:                                               ; preds = %6, %13
  %16 = phi i32 [ %22, %13 ], [ 2, %6 ]
  %17 = urem i32 %8, %16
  %18 = icmp eq i32 %17, 0
  br i1 %18, label %27, label %19

19:                                               ; preds = %15
  %20 = urem i32 %10, %16
  %21 = icmp eq i32 %20, 0
  %22 = add nuw nsw i32 %16, 1
  br i1 %21, label %27, label %13

23:                                               ; preds = %13
  %24 = call i32 (i8*, ...) @printf(i8* nonnull dereferenceable(1) getelementptr inbounds ([7 x i8], [7 x i8]* @.str.1, i64 0, i64 0), i32 %8, i32 %10)
  %25 = add nsw i32 %9, 1
  %26 = load i32, i32* %1, align 4, !tbaa !5
  br label %27

27:                                               ; preds = %15, %19, %23
  %28 = phi i32 [ %26, %23 ], [ %7, %19 ], [ %7, %15 ]
  %29 = phi i32 [ %25, %23 ], [ %9, %19 ], [ %9, %15 ]
  %30 = add nuw nsw i32 %8, 1
  %31 = add nsw i32 %28, -1
  %32 = icmp slt i32 %30, %31
  br i1 %32, label %6, label %11, !llvm.loop !11

33:                                               ; preds = %0, %11
  %34 = call i32 (i8*, ...) @printf(i8* nonnull dereferenceable(1) getelementptr inbounds ([6 x i8], [6 x i8]* @.str.2, i64 0, i64 0))
  br label %35

35:                                               ; preds = %33, %11
  call void @llvm.lifetime.end.p0i8(i64 4, i8* nonnull %2) #3
  ret i32 0
}

; Function Attrs: argmemonly mustprogress nofree nosync nounwind willreturn
declare void @llvm.lifetime.start.p0i8(i64 immarg, i8* nocapture) #1

; Function Attrs: nofree nounwind
declare noundef i32 @__isoc99_scanf(i8* nocapture noundef readonly, ...) local_unnamed_addr #2

; Function Attrs: argmemonly mustprogress nofree nosync nounwind willreturn
declare void @llvm.lifetime.end.p0i8(i64 immarg, i8* nocapture) #1

; Function Attrs: nofree nounwind
declare noundef i32 @printf(i8* nocapture noundef readonly, ...) local_unnamed_addr #2


!llvm.module.flags = !{!0, !1, !2, !3}
!llvm.ident = !{!4}

!0 = !{i32 1, !"wchar_size", i32 4}
!1 = !{i32 7, !"PIC Level", i32 2}
!2 = !{i32 7, !"PIE Level", i32 2}
!3 = !{i32 7, !"uwtable", i32 1}
!4 = !{!"clang version 13.0.0"}
!5 = !{!6, !6, i64 0}
!6 = !{!"int", !7, i64 0}
!7 = !{!"omnipotent char", !8, i64 0}
!8 = !{!"Simple C/C++ TBAA"}
!9 = distinct !{!9, !10}
!10 = !{!"llvm.loop.mustprogress"}
!11 = distinct !{!11, !10}
